; Function Attrs: mustprogress uwtable
define i16 @_ZN32pxrInternal_v0_24__pxrReserved__7GfQuath9NormalizeENS_8pxr_half4halfE(ptr noundef nonnull align 2 dereferenceable(8) %0, i16 %1) local_unnamed_addr #0 align 2 {
  %3 = tail call i16 @_ZN32pxrInternal_v0_24__pxrReserved__5GfDotERKNS_7GfQuathES2_(ptr noundef nonnull align 2 dereferenceable(8) %0, ptr noundef nonnull align 2 dereferenceable(8) %0)
  %4 = zext i16 %3 to i64
  %5 = getelementptr inbounds nuw [65536 x %"union.pxrInternal_v0_24__pxrReserved__::pxr_half::half::uif"], ptr @_ZN32pxrInternal_v0_24__pxrReserved__8pxr_half4half8_toFloatE, i64 0, i64 %4
  %6 = load float, ptr %5, align 4
  %7 = tail call noundef float @sqrtf(float noundef %6) #12
  %8 = bitcast float %7 to i32
  %9 = fcmp oeq float %7, 0.000000e+00
  br i1 %9, label %10, label %13

10:                                               ; preds = %2
  %11 = lshr exact i32 %8, 16
  %12 = trunc nuw i32 %11 to i16
  br label %_ZNK32pxrInternal_v0_24__pxrReserved__7GfQuath9GetLengthEv.exit

13:                                               ; preds = %2
  %14 = lshr i32 %8, 23
  %15 = zext nneg i32 %14 to i64
  %16 = getelementptr inbounds nuw [512 x i16], ptr @_ZN32pxrInternal_v0_24__pxrReserved__8pxr_half4half5_eLutE, i64 0, i64 %15
  %17 = load i16, ptr %16, align 2
  %.not.i.i = icmp eq i16 %17, 0
  br i1 %.not.i.i, label %27, label %18

18:                                               ; preds = %13
  %19 = and i32 %8, 8388607
  %20 = add nuw nsw i32 %19, 4095
  %21 = lshr i32 %8, 13
  %22 = and i32 %21, 1
  %23 = add nuw nsw i32 %20, %22
  %24 = lshr i32 %23, 13
  %25 = trunc nuw nsw i32 %24 to i16
  %26 = add i16 %17, %25
  br label %_ZNK32pxrInternal_v0_24__pxrReserved__7GfQuath9GetLengthEv.exit

27:                                               ; preds = %13
  %28 = tail call noundef signext i16 @_ZN32pxrInternal_v0_24__pxrReserved__8pxr_half4half7convertEi(i32 noundef %8)
  br label %_ZNK32pxrInternal_v0_24__pxrReserved__7GfQuath9GetLengthEv.exit

_ZNK32pxrInternal_v0_24__pxrReserved__7GfQuath9GetLengthEv.exit: ; preds = %10, %18, %27
  %.sink.i.i = phi i16 [ %26, %18 ], [ %28, %27 ], [ %12, %10 ]
  %29 = zext i16 %.sink.i.i to i64
  %30 = getelementptr inbounds nuw [65536 x %"union.pxrInternal_v0_24__pxrReserved__::pxr_half::half::uif"], ptr @_ZN32pxrInternal_v0_24__pxrReserved__8pxr_half4half8_toFloatE, i64 0, i64 %29
  %31 = load float, ptr %30, align 4
  %32 = zext i16 %1 to i64
  %33 = getelementptr inbounds nuw [65536 x %"union.pxrInternal_v0_24__pxrReserved__::pxr_half::half::uif"], ptr @_ZN32pxrInternal_v0_24__pxrReserved__8pxr_half4half8_toFloatE, i64 0, i64 %32
  %34 = load float, ptr %33, align 4
  %35 = fcmp olt float %31, %34
  br i1 %35, label %36, label %40

36:                                               ; preds = %_ZNK32pxrInternal_v0_24__pxrReserved__7GfQuath9GetLengthEv.exit
  %37 = load i16, ptr getelementptr inbounds nuw (i8, ptr @_ZN32pxrInternal_v0_24__pxrReserved__8pxr_half4half5_eLutE, i64 254), align 2
  %.not.i.i2 = icmp eq i16 %37, 0
  br i1 %.not.i.i2, label %38, label %_ZN32pxrInternal_v0_24__pxrReserved__7GfQuath11GetIdentityEv.exit

38:                                               ; preds = %36
  %39 = tail call noundef signext i16 @_ZN32pxrInternal_v0_24__pxrReserved__8pxr_half4half7convertEi(i32 noundef 1065353216)
  br label %_ZN32pxrInternal_v0_24__pxrReserved__7GfQuath11GetIdentityEv.exit

_ZN32pxrInternal_v0_24__pxrReserved__7GfQuath11GetIdentityEv.exit: ; preds = %36, %38
  %.sink.i.i3 = phi i16 [ %39, %38 ], [ %37, %36 ]
  %.sroa.4.0.insert.ext.i = zext i16 %.sink.i.i3 to i64
  %.sroa.4.0.insert.shift.i = shl nuw i64 %.sroa.4.0.insert.ext.i, 48
  store i64 %.sroa.4.0.insert.shift.i, ptr %0, align 2
  br label %72

40:                                               ; preds = %_ZNK32pxrInternal_v0_24__pxrReserved__7GfQuath9GetLengthEv.exit
  %41 = getelementptr inbounds nuw i8, ptr %0, i64 6
  %42 = load i16, ptr %41, align 2
  %43 = zext i16 %42 to i64
  %44 = getelementptr inbounds nuw [65536 x %"union.pxrInternal_v0_24__pxrReserved__::pxr_half::half::uif"], ptr @_ZN32pxrInternal_v0_24__pxrReserved__8pxr_half4half8_toFloatE, i64 0, i64 %43
  %45 = load float, ptr %44, align 4
  %46 = fdiv float %45, %31
  %47 = bitcast float %46 to i32
  %48 = fcmp oeq float %46, 0.000000e+00
  br i1 %48, label %49, label %52

49:                                               ; preds = %40
  %50 = lshr exact i32 %47, 16
  %51 = trunc nuw i32 %50 to i16
  br label %_ZN32pxrInternal_v0_24__pxrReserved__7GfQuathdVENS_8pxr_half4halfE.exit

52:                                               ; preds = %40
  %53 = lshr i32 %47, 23
  %54 = zext nneg i32 %53 to i64
  %55 = getelementptr inbounds nuw [512 x i16], ptr @_ZN32pxrInternal_v0_24__pxrReserved__8pxr_half4half5_eLutE, i64 0, i64 %54
  %56 = load i16, ptr %55, align 2
  %.not.i.i.i = icmp eq i16 %56, 0
  br i1 %.not.i.i.i, label %66, label %57

57:                                               ; preds = %52
  %58 = and i32 %47, 8388607
  %59 = add nuw nsw i32 %58, 4095
  %60 = lshr i32 %47, 13
  %61 = and i32 %60, 1
  %62 = add nuw nsw i32 %59, %61
  %63 = lshr i32 %62, 13
  %64 = trunc nuw nsw i32 %63 to i16
  %65 = add i16 %56, %64
  br label %_ZN32pxrInternal_v0_24__pxrReserved__7GfQuathdVENS_8pxr_half4halfE.exit

66:                                               ; preds = %52
  %67 = tail call noundef signext i16 @_ZN32pxrInternal_v0_24__pxrReserved__8pxr_half4half7convertEi(i32 noundef %47)
  br label %_ZN32pxrInternal_v0_24__pxrReserved__7GfQuathdVENS_8pxr_half4halfE.exit

_ZN32pxrInternal_v0_24__pxrReserved__7GfQuathdVENS_8pxr_half4halfE.exit: ; preds = %49, %57, %66
  %.sink.i.i.i = phi i16 [ %65, %57 ], [ %67, %66 ], [ %51, %49 ]
  store i16 %.sink.i.i.i, ptr %41, align 2
  %68 = load float, ptr %30, align 4
  %69 = fpext float %68 to double
  %70 = fdiv double 1.000000e+00, %69
  %71 = tail call noundef nonnull align 2 dereferenceable(6) ptr @_ZN32pxrInternal_v0_24__pxrReserved__7GfVec3hmLEd(ptr noundef nonnull align 2 dereferenceable(8) %0, double noundef %70)
  br label %72

72:                                               ; preds = %_ZN32pxrInternal_v0_24__pxrReserved__7GfQuathdVENS_8pxr_half4halfE.exit, %_ZN32pxrInternal_v0_24__pxrReserved__7GfQuath11GetIdentityEv.exit
  ret i16 %.sink.i.i
}